; Function Attrs: mustprogress nofree norecurse nounwind willreturn memory(readwrite, inaccessiblemem: none) uwtable
define void @_ZNK32pxrInternal_v0_24__pxrReserved__21UsdImagingPrimAdapter16ResolveCachePathERKNS_7SdfPathEPKNS_26UsdImagingInstancerContextE(ptr dead_on_unwind noalias nocapture writable writeonly sret(%"class.pxrInternal_v0_24__pxrReserved__::SdfPath") align 4 %0, ptr nocapture nonnull readnone align 8 %1, ptr nocapture noundef nonnull readonly align 4 dereferenceable(8) %2, ptr nocapture readnone %3) unnamed_addr #8 align 2 personality ptr @__gxx_personality_v0 {
  %5 = load i32, ptr %2, align 4
  store i32 %5, ptr %0, align 4
  %.not.i.i = icmp eq i32 %5, 0
  br i1 %.not.i.i, label %_ZN32pxrInternal_v0_24__pxrReserved__7SdfPathC2ERKS0_.exit, label %6

6:                                                ; preds = %4
  %7 = and i32 %5, 255
  %8 = lshr i32 %5, 8
  %9 = zext nneg i32 %7 to i64
  %10 = getelementptr inbounds [257 x ptr], ptr @_ZN32pxrInternal_v0_24__pxrReserved__8Sdf_PoolINS_15Sdf_PathPrimTagELj24ELj8ELj16384EE13_regionStartsE, i64 0, i64 %9
  %11 = load ptr, ptr %10, align 8
  %12 = mul nuw nsw i32 %8, 24
  %13 = zext nneg i32 %12 to i64
  %14 = getelementptr inbounds i8, ptr %11, i64 %13
  %15 = getelementptr inbounds nuw i8, ptr %14, i64 8
  %16 = atomicrmw add ptr %15, i32 1 monotonic, align 4
  br label %_ZN32pxrInternal_v0_24__pxrReserved__7SdfPathC2ERKS0_.exit

_ZN32pxrInternal_v0_24__pxrReserved__7SdfPathC2ERKS0_.exit: ; preds = %4, %6
  %17 = getelementptr inbounds nuw i8, ptr %0, i64 4
  %18 = getelementptr inbounds nuw i8, ptr %2, i64 4
  %19 = load i32, ptr %18, align 4
  store i32 %19, ptr %17, align 4
  ret void
}